; Function Attrs: mustprogress uwtable
define void @_ZNK8QuantLib15FDVanillaEngine13setGridLimitsEv(ptr noundef nonnull align 8 dereferenceable(240) %this) unnamed_addr #2 align 2 {
entry:
  %process_ = getelementptr inbounds nuw i8, ptr %this, i64 8
  %0 = load ptr, ptr %process_, align 8, !tbaa !18
  %cmp.not.i = icmp eq ptr %0, null
  br i1 %cmp.not.i, label %cond.false.i, label %_ZNK5boost10shared_ptrIN8QuantLib30GeneralizedBlackScholesProcessEEptEv.exit, !prof !20

cond.false.i:                                     ; preds = %entry
  tail call void @_ZN5boost16assertion_failedEPKcS1_S1_l(ptr noundef nonnull @.str.13, ptr noundef nonnull @__PRETTY_FUNCTION__._ZNK5boost10shared_ptrIN8QuantLib30GeneralizedBlackScholesProcessEEptEv, ptr noundef nonnull @.str.14, i64 noundef 784)
  %.pre.i = load ptr, ptr %process_, align 8, !tbaa !18
  br label %_ZNK5boost10shared_ptrIN8QuantLib30GeneralizedBlackScholesProcessEEptEv.exit

_ZNK5boost10shared_ptrIN8QuantLib30GeneralizedBlackScholesProcessEEptEv.exit: ; preds = %entry, %cond.false.i
  %1 = phi ptr [ %0, %entry ], [ %.pre.i, %cond.false.i ]
  %call2 = tail call noundef nonnull align 8 dereferenceable(16) ptr @_ZNK8QuantLib30GeneralizedBlackScholesProcess13stateVariableEv(ptr noundef nonnull align 8 dereferenceable(250) %1)
  %call3 = tail call noundef nonnull align 8 dereferenceable(16) ptr @_ZNK8QuantLib6HandleINS_5QuoteEEptEv(ptr noundef nonnull align 8 dereferenceable(16) %call2)
  %2 = load ptr, ptr %call3, align 8, !tbaa !21
  %cmp.not.i1 = icmp eq ptr %2, null
  br i1 %cmp.not.i1, label %cond.false.i2, label %_ZNK5boost10shared_ptrIN8QuantLib5QuoteEEptEv.exit, !prof !20

cond.false.i2:                                    ; preds = %_ZNK5boost10shared_ptrIN8QuantLib30GeneralizedBlackScholesProcessEEptEv.exit
  tail call void @_ZN5boost16assertion_failedEPKcS1_S1_l(ptr noundef nonnull @.str.13, ptr noundef nonnull @__PRETTY_FUNCTION__._ZNK5boost10shared_ptrIN8QuantLib5QuoteEEptEv, ptr noundef nonnull @.str.14, i64 noundef 784)
  %.pre.i3 = load ptr, ptr %call3, align 8, !tbaa !21
  br label %_ZNK5boost10shared_ptrIN8QuantLib5QuoteEEptEv.exit

_ZNK5boost10shared_ptrIN8QuantLib5QuoteEEptEv.exit: ; preds = %_ZNK5boost10shared_ptrIN8QuantLib30GeneralizedBlackScholesProcessEEptEv.exit, %cond.false.i2
  %3 = phi ptr [ %2, %_ZNK5boost10shared_ptrIN8QuantLib30GeneralizedBlackScholesProcessEEptEv.exit ], [ %.pre.i3, %cond.false.i2 ]
  %vtable = load ptr, ptr %3, align 8, !tbaa !14
  %vfn = getelementptr inbounds i8, ptr %vtable, i64 16
  %4 = load ptr, ptr %vfn, align 8
  %call5 = tail call noundef double %4(ptr noundef nonnull align 8 dereferenceable(8) %3)
  %vtable6 = load ptr, ptr %this, align 8, !tbaa !14
  %vfn7 = getelementptr inbounds i8, ptr %vtable6, i64 64
  %5 = load ptr, ptr %vfn7, align 8
  %call8 = tail call noundef double %5(ptr noundef nonnull align 8 dereferenceable(240) %this)
  %vtable9 = load ptr, ptr %this, align 8, !tbaa !14
  %vfn10 = getelementptr inbounds i8, ptr %vtable9, i64 32
  %6 = load ptr, ptr %vfn10, align 8
  tail call void %6(ptr noundef nonnull align 8 dereferenceable(240) %this, double noundef %call5, double noundef %call8)
  tail call void @_ZNK8QuantLib15FDVanillaEngine18ensureStrikeInGridEv(ptr noundef nonnull align 8 dereferenceable(240) %this)
  ret void
}